; Function Attrs: mustprogress nofree norecurse nosync nounwind willreturn memory(argmem: read) uwtable
define noundef i32 @_ZNK6google8protobuf2io16CodedInputStream25BytesUntilTotalBytesLimitEv(ptr noundef nonnull readonly align 8 captures(none) dereferenceable(80) %0) local_unnamed_addr #9 align 2 {
  %2 = getelementptr inbounds nuw i8, ptr %0, i64 48
  %3 = load i32, ptr %2, align 8, !tbaa !32
  %4 = icmp eq i32 %3, 2147483647
  br i1 %4, label %16, label %5

5:                                                ; preds = %1
  %6 = getelementptr inbounds nuw i8, ptr %0, i64 24
  %7 = load i32, ptr %6, align 8, !tbaa !20
  %8 = getelementptr inbounds nuw i8, ptr %0, i64 8
  %9 = load ptr, ptr %8, align 8, !tbaa !14
  %10 = load ptr, ptr %0, align 8, !tbaa !15
  %11 = ptrtoint ptr %9 to i64
  %12 = ptrtoint ptr %10 to i64
  %.neg3.i.neg = sub i64 %11, %12
  %.neg4.i.neg = trunc i64 %.neg3.i.neg to i32
  %13 = getelementptr inbounds nuw i8, ptr %0, i64 44
  %14 = load i32, ptr %13, align 4, !tbaa !16
  %.neg2.i.neg = sub i32 %3, %7
  %.neg = add i32 %.neg2.i.neg, %14
  %15 = add i32 %.neg, %.neg4.i.neg
  br label %16

16:                                               ; preds = %1, %5
  %.0 = phi i32 [ %15, %5 ], [ -1, %1 ]
  ret i32 %.0
}